target datalayout = "e-m:e-p270:32:32-p271:32:32-p272:64:64-i64:64-i128:128-f80:128-n8:16:32:64-S128"
target triple = "x86_64-pc-linux-gnu"

; Function Attrs: mustprogress nounwind uwtable
define void @_Z4itoalPwm(i64 noundef %0, ptr noundef %1, i64 noundef %2) #0 {
  %4 = alloca i64, align 8
  %5 = alloca ptr, align 8
  %6 = alloca i64, align 8
  %7 = alloca [50 x i32], align 16
  %8 = alloca i64, align 8
  %9 = alloca i32, align 4
  %10 = alloca i64, align 8
  store i64 %0, ptr %4, align 8
  store ptr %1, ptr %5, align 8
  store i64 %2, ptr %6, align 8
  store i64 0, ptr %8, align 8
  %11 = load i64, ptr %4, align 8
  %12 = icmp slt i64 %11, 0
  %13 = select i1 %12, i32 1, i32 0
  store i32 %13, ptr %9, align 4
  %14 = load i32, ptr %9, align 4
  %15 = icmp ne i32 %14, 0
  br i1 %15, label %16, label %19

16:                                               ; preds = %3
  %17 = load i64, ptr %4, align 8
  %18 = sub nsw i64 0, %17
  store i64 %18, ptr %4, align 8
  br label %19

19:                                               ; preds = %16, %3
  br label %20

20:                                               ; preds = %39, %19
  %21 = load i64, ptr %8, align 8
  %22 = add i64 %21, 1
  %23 = load i64, ptr %6, align 8
  %24 = load i32, ptr %9, align 4
  %25 = sext i32 %24 to i64
  %26 = sub i64 %23, %25
  %27 = icmp uge i64 %22, %26
  br i1 %27, label %28, label %29

28:                                               ; preds = %20
  br label %42

29:                                               ; preds = %20
  %30 = load i64, ptr %4, align 8
  %31 = srem i64 %30, 10
  %32 = trunc i64 %31 to i32
  %33 = add nsw i32 %32, 48
  %34 = load i64, ptr %8, align 8
  %35 = add i64 %34, 1
  store i64 %35, ptr %8, align 8
  %36 = getelementptr inbounds [50 x i32], ptr %7, i64 0, i64 %34
  store i32 %33, ptr %36, align 4
  %37 = load i64, ptr %4, align 8
  %38 = sdiv i64 %37, 10
  store i64 %38, ptr %4, align 8
  br label %39

39:                                               ; preds = %29
  %40 = load i64, ptr %4, align 8
  %41 = icmp ne i64 %40, 0
  br i1 %41, label %20, label %42, !llvm.loop !17

42:                                               ; preds = %39, %28
  %43 = load i32, ptr %9, align 4
  %44 = icmp ne i32 %43, 0
  br i1 %44, label %45, label %49

45:                                               ; preds = %42
  %46 = load i64, ptr %8, align 8
  %47 = add i64 %46, 1
  store i64 %47, ptr %8, align 8
  %48 = getelementptr inbounds [50 x i32], ptr %7, i64 0, i64 %46
  store i32 45, ptr %48, align 4
  br label %49

49:                                               ; preds = %45, %42
  store i64 0, ptr %10, align 8
  br label %50

50:                                               ; preds = %64, %49
  %51 = load i64, ptr %10, align 8
  %52 = load i64, ptr %8, align 8
  %53 = icmp ult i64 %51, %52
  br i1 %53, label %54, label %67

54:                                               ; preds = %50
  %55 = load i64, ptr %8, align 8
  %56 = load i64, ptr %10, align 8
  %57 = sub i64 %55, %56
  %58 = sub i64 %57, 1
  %59 = getelementptr inbounds [50 x i32], ptr %7, i64 0, i64 %58
  %60 = load i32, ptr %59, align 4
  %61 = load ptr, ptr %5, align 8
  %62 = load i64, ptr %10, align 8
  %63 = getelementptr inbounds i32, ptr %61, i64 %62
  store i32 %60, ptr %63, align 4
  br label %64

64:                                               ; preds = %54
  %65 = load i64, ptr %10, align 8
  %66 = add i64 %65, 1
  store i64 %66, ptr %10, align 8
  br label %50, !llvm.loop !18

67:                                               ; preds = %50
  %68 = load ptr, ptr %5, align 8
  %69 = load i64, ptr %8, align 8
  %70 = getelementptr inbounds i32, ptr %68, i64 %69
  store i32 0, ptr %70, align 4
  ret void
}