; Function Attrs: mustprogress nofree norecurse nosync nounwind memory(argmem: write) uwtable
define void @_Z4itoalPwm(i64 noundef %0, ptr nocapture noundef writeonly %1, i64 noundef %2) local_unnamed_addr #11 {
  %4 = alloca [50 x i32], align 16
  %5 = icmp slt i64 %0, 0
  %.lobit.neg = ashr i64 %0, 63
  %spec.select = tail call i64 @llvm.abs.i64(i64 %0, i1 true)
  %6 = add i64 %.lobit.neg, %2
  %umax = tail call i64 @llvm.umax.i64(i64 %6, i64 1)
  %7 = add i64 %umax, -1
  br label %8

8:                                                ; preds = %9, %3
  %.021 = phi i64 [ 0, %3 ], [ %10, %9 ]
  %.1 = phi i64 [ %spec.select, %3 ], [ %15, %9 ]
  %exitcond.not = icmp eq i64 %.021, %7
  br i1 %exitcond.not, label %16, label %9

9:                                                ; preds = %8
  %10 = add nuw i64 %.021, 1
  %11 = urem i64 %.1, 10
  %12 = trunc nuw nsw i64 %11 to i32
  %13 = or disjoint i32 %12, 48
  %14 = getelementptr inbounds [50 x i32], ptr %4, i64 0, i64 %.021
  store i32 %13, ptr %14, align 4
  %15 = udiv i64 %.1, 10
  %.not27 = icmp ult i64 %.1, 10
  br i1 %.not27, label %16, label %8, !llvm.loop !17

16:                                               ; preds = %8, %9
  %.122 = phi i64 [ %7, %8 ], [ %10, %9 ]
  br i1 %5, label %17, label %20

17:                                               ; preds = %16
  %18 = add i64 %.122, 1
  %19 = getelementptr inbounds [50 x i32], ptr %4, i64 0, i64 %.122
  store i32 45, ptr %19, align 4
  br label %20

20:                                               ; preds = %17, %16
  %.2 = phi i64 [ %18, %17 ], [ %.122, %16 ]
  %.not29 = icmp eq i64 %.2, 0
  br i1 %.not29, label %._crit_edge, label %.lr.ph

.lr.ph:                                           ; preds = %20, %.lr.ph
  %.028 = phi i64 [ %26, %.lr.ph ], [ 0, %20 ]
  %21 = xor i64 %.028, -1
  %22 = add i64 %.2, %21
  %23 = getelementptr inbounds [50 x i32], ptr %4, i64 0, i64 %22
  %24 = load i32, ptr %23, align 4
  %25 = getelementptr inbounds i32, ptr %1, i64 %.028
  store i32 %24, ptr %25, align 4
  %26 = add nuw i64 %.028, 1
  %exitcond30.not = icmp eq i64 %26, %.2
  br i1 %exitcond30.not, label %._crit_edge, label %.lr.ph, !llvm.loop !18

._crit_edge:                                      ; preds = %.lr.ph, %20
  %27 = getelementptr inbounds i32, ptr %1, i64 %.2
  store i32 0, ptr %27, align 4
  ret void
}